; Function Attrs: mustprogress nofree norecurse nosync nounwind willreturn memory(readwrite, inaccessiblemem: none) uwtable
define hidden void @_ZN19SamplePriorityQueue4swapEii(ptr nocapture noundef nonnull readonly align 8 dereferenceable(32) %0, i32 noundef %1, i32 noundef %2) local_unnamed_addr #5 align 2 {
  %4 = load ptr, ptr %0, align 8
  %5 = sext i32 %1 to i64
  %6 = getelementptr inbounds ptr, ptr %4, i64 %5
  %7 = load ptr, ptr %6, align 8
  %8 = sext i32 %2 to i64
  %9 = getelementptr inbounds ptr, ptr %4, i64 %8
  %10 = load ptr, ptr %9, align 8
  store ptr %10, ptr %6, align 8
  %11 = load ptr, ptr %0, align 8
  %12 = getelementptr inbounds ptr, ptr %11, i64 %8
  store ptr %7, ptr %12, align 8
  %13 = load ptr, ptr %0, align 8
  %14 = getelementptr inbounds ptr, ptr %13, i64 %5
  %15 = load ptr, ptr %14, align 8
  %16 = getelementptr inbounds i8, ptr %15, i64 112
  store i32 %1, ptr %16, align 8
  %17 = load ptr, ptr %0, align 8
  %18 = getelementptr inbounds ptr, ptr %17, i64 %8
  %19 = load ptr, ptr %18, align 8
  %20 = getelementptr inbounds i8, ptr %19, i64 112
  store i32 %2, ptr %20, align 8
  ret void
}